; Function Attrs: nounwind uwtable
define hidden void @mbedtls_aes_xts_free(ptr noundef %0) local_unnamed_addr #2 {
  %2 = icmp eq ptr %0, null
  br i1 %2, label %4, label %mbedtls_aes_free.exit

mbedtls_aes_free.exit:                            ; preds = %1
  tail call void @mbedtls_platform_zeroize(ptr noundef nonnull %0, i64 noundef 288) #11
  %3 = getelementptr inbounds nuw i8, ptr %0, i64 288
  tail call void @mbedtls_platform_zeroize(ptr noundef nonnull %3, i64 noundef 288) #11
  br label %4

4:                                                ; preds = %1, %mbedtls_aes_free.exit
  ret void
}